Certificate:
    Data:
        Version: 3 (0x2)
        Serial Number: 8778443901954 (0x7fbe407cc02)
    Signature Algorithm: sha256WithRSAEncryption
        Issuer: C=DE, O=KeyIdentity GmbH, OU=IT Operations, CN=Root-Level CA
        Validity
            Not Before: Feb  1 13:09:54 2017 GMT
            Not After : Jan 30 13:09:54 2027 GMT
        Subject: C=DE, O=KeyIdentity GmbH, OU=IT Operations, CN=Root-Level CA
        Subject Public Key Info:
            Public Key Algorithm: rsaEncryption
                Public-Key: (4096 bit)
                Modulus:
                    00:aa:cb:b6:21:8c:3f:91:7e:d9:73:36:00:60:8a:
                    6f:e7:2c:fc:b0:2f:86:96:1f:99:57:59:44:4a:88:
                    df:3e:a5:c8:1e:48:1c:0a:37:9e:11:47:a2:01:d8:
                    79:1d:d4:a1:6b:6a:2a:af:69:26:34:fe:0d:94:ea:
                    d8:aa:44:b8:a2:04:da:b0:fb:5b:9a:3d:98:14:d1:
                    f9:7d:5d:e8:5e:8e:d7:3b:e0:8b:3a:41:96:6d:98:
                    7e:4a:a7:0b:21:08:61:32:05:3e:71:fa:c2:f0:98:
                    0a:87:08:e9:83:11:66:9b:da:ae:a3:50:46:dc:12:
                    8c:e8:56:0c:15:a0:fb:b5:77:17:69:db:7d:aa:92:
                    b3:58:5b:fd:7c:40:b0:60:0c:bf:95:0b:b0:b1:3d:
                    af:0c:db:9e:8a:42:d6:24:5c:da:1f:e8:12:73:04:
                    6a:e8:a5:bc:62:68:c9:9b:32:3e:f6:c2:9a:07:56:
                    95:1e:92:26:0c:d0:f5:54:2b:08:7c:89:00:88:50:
                    f9:28:b4:32:17:16:f5:c3:ee:58:41:34:0c:c1:eb:
                    d3:95:aa:2f:a2:b2:c4:0e:ae:6d:c3:63:69:a6:e6:
                    42:95:fb:0e:c2:ba:e6:b7:94:7a:29:3c:ac:e8:b6:
                    a5:8a:33:5c:0b:0b:d6:14:05:d9:f5:3b:39:9f:41:
                    6d:3c:76:68:b4:a6:c0:20:c8:bd:06:76:b8:78:88:
                    29:78:0e:08:94:af:a4:9a:d3:ae:a6:83:03:ae:03:
                    c4:d4:16:96:17:c4:28:40:8b:78:03:cf:0c:30:61:
                    dc:32:f4:6c:ba:e0:af:b9:d2:78:12:b4:50:a5:bf:
                    38:41:af:da:bf:0e:9c:97:95:d4:2f:d4:8a:26:65:
                    05:de:a2:d0:88:6e:3f:af:c5:f6:55:50:3d:60:a3:
                    23:25:de:d5:22:96:b7:29:89:59:42:2b:93:a7:01:
                    e6:46:5d:3e:2d:16:88:b7:f5:b8:f9:39:b9:1d:31:
                    8b:6a:f7:7e:ab:f7:fb:1c:cf:ca:10:14:4f:d5:68:
                    85:9f:03:1d:f8:13:51:40:cb:51:22:ec:d7:9d:35:
                    72:6f:66:d6:35:bb:9a:7f:00:70:11:a2:4b:7b:94:
                    53:b9:f8:e8:70:37:1a:70:c9:74:2f:97:25:71:be:
                    be:7d:a2:1b:49:d0:5d:7a:1f:b4:99:c4:33:06:d3:
                    62:a3:29:a0:f8:c9:74:f6:eb:97:da:2d:2b:44:c7:
                    b5:5b:dd:59:d9:4c:ae:90:1d:39:b6:3e:62:c4:26:
                    5d:a6:fa:45:38:cd:78:c1:a0:22:95:be:55:72:0c:
                    28:10:d5:6c:a0:69:a3:b5:6b:ff:1e:3e:36:15:a4:
                    96:be:57
                Exponent: 65537 (0x10001)
        X509v3 extensions:
            X509v3 Subject Key Identifier: 
                F7:B3:8D:91:D0:3C:BD:6E:90:8F:FD:4C:C0:34:72:11:72:2E:FA:6D
            X509v3 Basic Constraints: critical
                CA:TRUE
            X509v3 Key Usage: critical
                Certificate Sign, CRL Sign
    Signature Algorithm: sha256WithRSAEncryption
         5b:89:21:28:80:f3:46:f1:34:3a:51:a4:58:ce:92:bb:a8:19:
         6f:db:4c:e4:90:2e:c9:b5:82:82:f1:56:e5:30:ec:d5:6b:c2:
         18:c0:20:85:d9:bf:3b:60:ed:31:d5:5c:cd:ba:2d:bd:ae:e6:
         24:d2:c7:7c:80:9b:3a:9f:a4:b5:07:73:38:a8:e2:60:e8:e0:
         3c:e3:36:34:9b:b1:00:da:f3:f5:b1:07:27:1a:22:4e:95:02:
         2e:04:a9:50:90:ad:ff:dc:df:05:db:9c:e5:ed:56:23:c0:76:
         7d:5e:1c:0d:bd:df:8e:af:8d:06:ce:9c:15:b9:fc:8d:78:de:
         1a:4d:fa:37:b1:43:79:5d:85:33:f3:f7:fc:73:60:85:d8:fa:
         cc:d0:e8:70:db:45:89:46:87:eb:48:dc:5f:f5:fc:c6:48:bb:
         79:cc:27:00:1a:d6:9e:83:0b:17:10:e5:48:de:ab:9c:e4:45:
         e2:ea:59:4b:ab:71:b0:76:86:93:70:be:9c:64:f2:0c:86:d6:
         01:eb:0b:32:e0:bf:e2:d5:98:0b:19:92:e2:f6:bf:94:57:28:
         3d:c2:18:d3:e6:79:f0:b8:b3:5a:65:0e:ce:c4:60:8b:4f:03:
         66:31:92:f9:41:0b:04:3b:4a:bb:0d:d9:63:f6:c2:0f:d6:ba:
         61:38:f5:9c:7e:d8:fd:0d:83:22:65:2e:67:f0:9a:04:ae:fc:
         1a:41:93:9b:47:12:96:e5:4e:28:5d:02:07:f9:55:ff:b2:1f:
         21:03:f0:e6:c7:39:ff:81:fe:5c:f9:0c:0b:f5:69:70:60:26:
         96:7d:11:e5:51:da:77:45:80:a3:c1:f9:a7:cf:fb:02:b0:c2:
         67:fc:36:de:f3:65:6c:8a:de:38:9e:c6:d1:dc:0a:76:fb:f7:
         3f:67:1c:af:fa:9d:bd:da:54:d6:da:f6:b9:63:91:1e:00:7f:
         40:de:41:3d:1a:d1:8d:ce:40:4f:b2:b8:c8:f4:76:f2:23:54:
         33:be:dd:f5:79:56:c8:b8:e3:48:93:57:24:e0:b6:23:f8:82:
         69:6e:b5:a2:aa:ae:90:cd:09:25:4e:c2:67:cd:21:15:ed:42:
         dd:73:17:46:01:69:6d:b6:2a:26:0b:00:f8:0f:4a:bc:0a:f0:
         06:0d:12:ca:b3:31:6d:76:8a:50:2e:cb:2b:73:41:66:6d:c6:
         03:41:b8:5a:ca:88:eb:af:a9:46:eb:6f:06:19:e6:c3:f3:19:
         4d:12:19:c9:3b:56:01:c9:73:3e:87:68:37:46:0e:cb:c9:13:
         df:48:ba:8c:32:0d:5e:32:3a:31:a6:84:52:9d:c8:a5:92:fd:
         58:82:68:db:01:1b:e2:9d
-----BEGIN CERTIFICATE-----
MIIFcjCCA1qgAwIBAgIGB/vkB8wCMA0GCSqGSIb3DQEBCwUAMFgxCzAJBgNVBAYT
AkRFMRkwFwYDVQQKDBBLZXlJZGVudGl0eSBHbWJIMRYwFAYDVQQLDA1JVCBPcGVy
YXRpb25zMRYwFAYDVQQDDA1Sb290LUxldmVsIENBMB4XDTE3MDIwMTEzMDk1NFoX
DTI3MDEzMDEzMDk1NFowWDELMAkGA1UEBhMCREUxGTAXBgNVBAoMEEtleUlkZW50
aXR5IEdtYkgxFjAUBgNVBAsMDUlUIE9wZXJhdGlvbnMxFjAUBgNVBAMMDVJvb3Qt
TGV2ZWwgQ0EwggIiMA0GCSqGSIb3DQEBAQUAA4ICDwAwggIKAoICAQCqy7YhjD+R
ftlzNgBgim/nLPywL4aWH5lXWURKiN8+pcgeSBwKN54RR6IB2Hkd1KFraiqvaSY0
/g2U6tiqRLiiBNqw+1uaPZgU0fl9Xehejtc74Is6QZZtmH5KpwshCGEyBT5x+sLw
mAqHCOmDEWab2q6jUEbcEozoVgwVoPu1dxdp232qkrNYW/18QLBgDL+VC7CxPa8M
256KQtYkXNof6BJzBGropbxiaMmbMj72wpoHVpUekiYM0PVUKwh8iQCIUPkotDIX
FvXD7lhBNAzB69OVqi+issQOrm3DY2mm5kKV+w7Cuua3lHopPKzotqWKM1wLC9YU
Bdn1OzmfQW08dmi0psAgyL0Gdrh4iCl4DgiUr6Sa066mgwOuA8TUFpYXxChAi3gD
zwwwYdwy9Gy64K+50ngStFClvzhBr9q/DpyXldQv1IomZQXeotCIbj+vxfZVUD1g
oyMl3tUilrcpiVlCK5OnAeZGXT4tFoi39bj5ObkdMYtq936r9/scz8oQFE/VaIWf
Ax34E1FAy1Ei7NedNXJvZtY1u5p/AHARokt7lFO5+OhwNxpwyXQvlyVxvr59ohtJ
0F16H7SZxDMG02KjKaD4yXT265faLStEx7Vb3VnZTK6QHTm2PmLEJl2m+kU4zXjB
oCKVvlVyDCgQ1WygaaO1a/8ePjYVpJa+VwIDAQABo0IwQDAdBgNVHQ4EFgQU97ON
kdA8vW6Qj/1MwDRyEXIu+m0wDwYDVR0TAQH/BAUwAwEB/zAOBgNVHQ8BAf8EBAMC
AQYwDQYJKoZIhvcNAQELBQADggIBAFuJISiA80bxNDpRpFjOkruoGW/bTOSQLsm1
goLxVuUw7NVrwhjAIIXZvztg7THVXM26Lb2u5iTSx3yAmzqfpLUHczio4mDo4Dzj
NjSbsQDa8/WxBycaIk6VAi4EqVCQrf/c3wXbnOXtViPAdn1eHA29346vjQbOnBW5
/I143hpN+jexQ3ldhTPz9/xzYIXY+szQ6HDbRYlGh+tI3F/1/MZIu3nMJwAa1p6D
CxcQ5Ujeq5zkReLqWUurcbB2hpNwvpxk8gyG1gHrCzLgv+LVmAsZkuL2v5RXKD3C
GNPmefC4s1plDs7EYItPA2YxkvlBCwQ7SrsN2WP2wg/WumE49Zx+2P0NgyJlLmfw
mgSu/BpBk5tHEpblTihdAgf5Vf+yHyED8ObHOf+B/lz5DAv1aXBgJpZ9EeVR2ndF
gKPB+afP+wKwwmf8Nt7zZWyK3jiextHcCnb79z9nHK/6nb3aVNba9rljkR4Af0De
QT0a0Y3OQE+yuMj0dvIjVDO+3fV5Vsi440iTVyTgtiP4gmlutaKqrpDNCSVOwmfN
IRXtQt1zF0YBaW22KiYLAPgPSrwK8AYNEsqzMW12ilAuyytzQWZtxgNBuFrKiOuv
qUbrbwYZ5sPzGU0SGck7VgHJcz6HaDdGDsvJE99IuowyDV4yOjGmhFKdyKWS/ViC
aNsBG+Kd
-----END CERTIFICATE-----
Certificate:
    Data:
        Version: 3 (0x2)
        Serial Number: 8778443901955 (0x7fbe407cc03)
    Signature Algorithm: sha256WithRSAEncryption
        Issuer: C=DE, O=KeyIdentity GmbH, OU=IT Operations, CN=Root-Level CA
        Validity
            Not Before: Feb  1 13:11:28 2017 GMT
            Not After : Jan 30 13:11:28 2027 GMT
        Subject: C=DE, O=KeyIdentity GmbH, OU=IT Operations, CN=Servers CA
        Subject Public Key Info:
            Public Key Algorithm: rsaEncryption
                Public-Key: (4096 bit)
                Modulus:
                    00:c4:45:ca:ed:71:84:5d:d1:0a:c6:e7:97:2f:be:
                    35:56:41:23:aa:01:4d:ac:0e:26:d3:e9:f1:fc:84:
                    76:cd:78:76:35:89:ce:8c:7e:19:04:62:c8:e5:ff:
                    a3:9a:37:cc:e0:6d:fc:6c:d1:5d:35:e2:6c:75:b7:
                    19:7e:1e:52:31:13:a2:5f:a7:b0:9c:33:17:17:12:
                    66:7a:80:33:31:50:eb:44:e8:0b:59:42:3c:41:72:
                    89:bb:7c:42:70:92:84:a0:53:ce:f4:67:f6:ec:cc:
                    75:54:05:76:8d:61:c9:89:85:47:59:a0:29:4b:5d:
                    09:c9:0b:cf:bd:2b:a0:fb:0a:3e:2c:3d:54:dd:99:
                    68:35:5b:ed:f8:44:81:d1:bf:eb:7a:41:92:7e:84:
                    f8:26:3c:7b:d3:31:fa:3e:cd:0a:b1:a1:a4:74:6b:
                    a6:84:c1:85:65:df:b9:81:d0:96:e7:99:d5:c1:fc:
                    3f:1c:fe:5e:9b:34:6c:ad:cd:42:45:10:51:ac:27:
                    5e:55:db:9d:93:37:a9:7e:6a:de:55:41:c3:17:43:
                    07:f3:3f:47:ae:63:94:6e:79:81:48:b7:c7:df:30:
                    ac:74:e0:e7:4d:56:68:11:ad:c0:12:26:7d:27:3e:
                    c6:a9:cb:f5:a4:4d:36:06:7d:98:f1:47:99:9d:82:
                    64:30:0d:cc:ce:1a:48:45:91:54:85:83:31:85:14:
                    37:b6:f8:7d:0d:a3:29:f7:57:56:f8:e9:1d:28:65:
                    b3:84:31:35:32:a5:c6:48:65:0d:fc:75:f0:66:e8:
                    3a:8f:b6:39:df:b7:2b:f0:1e:93:b6:64:b8:4f:05:
                    10:f0:9f:5c:7f:26:ce:35:4b:e9:d8:a2:ba:2f:9c:
                    66:d7:0a:00:52:eb:c2:c1:69:0c:56:62:be:ed:10:
                    9b:6a:49:85:66:59:eb:a6:c1:a4:96:5a:6b:ef:3a:
                    78:fa:85:ff:d2:60:04:db:8a:a6:b3:ec:ff:ba:25:
                    37:e9:48:7f:9a:34:4f:a7:4f:f5:04:7b:20:ac:1c:
                    c2:41:e2:b6:28:a0:a9:3f:84:1d:92:50:57:df:17:
                    7b:84:89:0a:d5:cd:0b:21:4f:30:1d:c5:05:c6:d6:
                    93:d7:89:77:d4:77:d7:5c:a3:e9:97:bf:8c:6f:ec:
                    71:93:0e:93:93:61:81:ba:73:41:dc:8a:75:71:63:
                    39:85:c4:f2:a8:24:02:87:a6:42:de:1d:9d:16:ae:
                    61:90:c7:50:80:e3:f0:bb:d9:41:c6:a0:01:c3:6a:
                    6c:2c:9f:6e:59:9a:e8:89:a3:81:e3:f9:95:5e:b9:
                    db:d9:b1:39:e1:38:e2:bd:42:71:05:61:f8:32:af:
                    30:e8:c5
                Exponent: 65537 (0x10001)
        X509v3 extensions:
            Authority Information Access: 
                CA Issuers - URI:http://root.push.keyidentity.com/root.crt

            X509v3 Authority Key Identifier: 
                keyid:F7:B3:8D:91:D0:3C:BD:6E:90:8F:FD:4C:C0:34:72:11:72:2E:FA:6D

            X509v3 Subject Key Identifier: 
                A6:22:F4:32:2F:D9:5D:96:0F:3F:82:C4:F1:18:9D:E7:4C:38:47:53
            X509v3 Basic Constraints: critical
                CA:TRUE, pathlen:0
            X509v3 CRL Distribution Points: 

                Full Name:
                  URI:http://root.push.keyidentity.com/root.crl

            X509v3 Key Usage: critical
                Certificate Sign, CRL Sign
            X509v3 Extended Key Usage: 
                TLS Web Client Authentication, TLS Web Server Authentication
            X509v3 Name Constraints: 
                Permitted:
                  DNS:push.keyidentity.com
                Excluded:
                  IP:0.0.0.0/0.0.0.0
                  IP:0:0:0:0:0:0:0:0/0:0:0:0:0:0:0:0

    Signature Algorithm: sha256WithRSAEncryption
         3e:ba:93:30:b7:3c:e7:3d:53:34:8c:f5:db:5b:2e:fe:d5:51:
         68:ea:7e:c2:8b:4d:37:44:32:90:0e:32:bd:d1:a1:15:7e:c8:
         f3:30:6b:a8:77:2d:20:58:bf:c1:e5:83:0a:d3:e9:e8:ef:bb:
         e0:6c:df:f2:30:e2:c4:ec:be:d0:a3:92:ea:f6:3a:33:1c:15:
         a3:42:7e:d8:59:dc:b2:a3:24:64:e4:66:ef:55:60:04:06:f2:
         a9:f9:09:13:83:4d:79:a0:ca:73:f2:89:0e:19:aa:b1:7d:a4:
         0a:ff:0d:99:ac:79:8c:96:a3:0f:54:8d:7d:9a:92:a8:5c:7e:
         bb:a2:da:6d:43:41:83:72:bb:b6:fa:2e:a4:dd:0c:24:8d:fc:
         fb:61:2d:80:dd:dd:c4:6e:83:e4:14:fa:8c:b6:e5:83:0a:92:
         46:67:bc:a7:1a:c8:6a:6e:03:27:c6:5e:7d:e1:e0:83:71:87:
         dc:63:fa:10:86:cd:48:d2:b5:00:7b:b2:4d:52:6f:7b:0a:3d:
         76:63:8e:18:7e:79:7b:6a:3f:84:43:33:b7:28:15:c6:fe:0d:
         f3:ad:74:19:7b:c0:8f:68:3b:d4:9c:24:8f:d2:a0:23:49:ef:
         07:b4:ab:6c:e6:a8:1f:8a:92:66:2b:a9:ad:ab:d8:4a:b8:bd:
         ac:91:7b:4b:b9:27:1a:5a:18:77:7c:36:20:4c:ee:99:cd:55:
         cc:53:59:6e:a1:35:ca:21:2c:64:98:f6:99:b1:2f:52:24:66:
         cc:f5:92:b6:d7:ce:70:9e:42:5a:c0:2a:9d:c5:e1:85:0c:9c:
         a5:fb:ff:01:83:ad:07:6c:b2:87:2e:2d:47:f1:2a:f1:20:fe:
         71:de:9e:72:d5:32:70:94:88:f2:f6:54:8c:35:34:64:65:19:
         cd:07:62:43:bf:e3:47:61:f3:40:04:eb:43:e7:0d:37:4f:9d:
         a0:e1:9e:8d:6c:71:f6:1e:08:fe:0a:73:70:e3:e6:3e:f4:16:
         b4:ce:96:e4:06:58:95:9f:cb:98:2a:35:a2:1a:c8:98:53:ec:
         90:f6:e9:f6:cd:26:ef:fe:4a:ce:f3:3d:ab:f5:3d:80:87:62:
         e0:27:ad:a2:bc:57:5e:5c:db:23:80:d6:53:81:11:63:d3:53:
         09:44:92:3e:ed:f9:97:bf:9b:0c:3c:1b:5c:3f:bc:9a:ea:c1:
         c4:4f:1f:f6:97:c5:ee:8a:e8:4c:da:a6:e8:66:64:ee:1f:f2:
         ad:43:b1:59:07:0b:1f:e1:af:61:ed:2c:70:9f:23:4a:8c:44:
         88:a2:90:8d:16:26:a2:d2:46:6e:6c:26:12:80:08:5a:22:00:
         cb:4c:29:c0:c0:8d:48:8b
-----BEGIN CERTIFICATE-----
MIIGkDCCBHigAwIBAgIGB/vkB8wDMA0GCSqGSIb3DQEBCwUAMFgxCzAJBgNVBAYT
AkRFMRkwFwYDVQQKDBBLZXlJZGVudGl0eSBHbWJIMRYwFAYDVQQLDA1JVCBPcGVy
YXRpb25zMRYwFAYDVQQDDA1Sb290LUxldmVsIENBMB4XDTE3MDIwMTEzMTEyOFoX
DTI3MDEzMDEzMTEyOFowVTELMAkGA1UEBhMCREUxGTAXBgNVBAoMEEtleUlkZW50
aXR5IEdtYkgxFjAUBgNVBAsMDUlUIE9wZXJhdGlvbnMxEzARBgNVBAMMClNlcnZl
cnMgQ0EwggIiMA0GCSqGSIb3DQEBAQUAA4ICDwAwggIKAoICAQDERcrtcYRd0QrG
55cvvjVWQSOqAU2sDibT6fH8hHbNeHY1ic6MfhkEYsjl/6OaN8zgbfxs0V014mx1
txl+HlIxE6Jfp7CcMxcXEmZ6gDMxUOtE6AtZQjxBcom7fEJwkoSgU870Z/bszHVU
BXaNYcmJhUdZoClLXQnJC8+9K6D7Cj4sPVTdmWg1W+34RIHRv+t6QZJ+hPgmPHvT
Mfo+zQqxoaR0a6aEwYVl37mB0JbnmdXB/D8c/l6bNGytzUJFEFGsJ15V252TN6l+
at5VQcMXQwfzP0euY5RueYFIt8ffMKx04OdNVmgRrcASJn0nPsapy/WkTTYGfZjx
R5mdgmQwDczOGkhFkVSFgzGFFDe2+H0Noyn3V1b46R0oZbOEMTUypcZIZQ38dfBm
6DqPtjnftyvwHpO2ZLhPBRDwn1x/Js41S+nYorovnGbXCgBS68LBaQxWYr7tEJtq
SYVmWeumwaSWWmvvOnj6hf/SYATbiqaz7P+6JTfpSH+aNE+nT/UEeyCsHMJB4rYo
oKk/hB2SUFffF3uEiQrVzQshTzAdxQXG1pPXiXfUd9dco+mXv4xv7HGTDpOTYYG6
c0HcinVxYzmFxPKoJAKHpkLeHZ0WrmGQx1CA4/C72UHGoAHDamwsn25ZmuiJo4Hj
+ZVeudvZsTnhOOK9QnEFYfgyrzDoxQIDAQABo4IBYTCCAV0wRQYIKwYBBQUHAQEE
OTA3MDUGCCsGAQUFBzAChilodHRwOi8vcm9vdC5wdXNoLmtleWlkZW50aXR5LmNv
bS9yb290LmNydDAfBgNVHSMEGDAWgBT3s42R0Dy9bpCP/UzANHIRci76bTAdBgNV
HQ4EFgQUpiL0Mi/ZXZYPP4LE8Rid50w4R1MwEgYDVR0TAQH/BAgwBgEB/wIBADA6
BgNVHR8EMzAxMC+gLaArhilodHRwOi8vcm9vdC5wdXNoLmtleWlkZW50aXR5LmNv
bS9yb290LmNybDAOBgNVHQ8BAf8EBAMCAQYwHQYDVR0lBBYwFAYIKwYBBQUHAwIG
CCsGAQUFBwMBMFUGA1UdHgROMEygGDAWghRwdXNoLmtleWlkZW50aXR5LmNvbaEw
MAqHCAAAAAAAAAAAMCKHIAAAAAAAAAAAAAAAAAAAAAAAAAAAAAAAAAAAAAAAAAAA
MA0GCSqGSIb3DQEBCwUAA4ICAQA+upMwtzznPVM0jPXbWy7+1VFo6n7Ci003RDKQ
DjK90aEVfsjzMGuody0gWL/B5YMK0+no77vgbN/yMOLE7L7Qo5Lq9jozHBWjQn7Y
WdyyoyRk5GbvVWAEBvKp+QkTg015oMpz8okOGaqxfaQK/w2ZrHmMlqMPVI19mpKo
XH67otptQ0GDcru2+i6k3Qwkjfz7YS2A3d3EboPkFPqMtuWDCpJGZ7ynGshqbgMn
xl594eCDcYfcY/oQhs1I0rUAe7JNUm97Cj12Y44Yfnl7aj+EQzO3KBXG/g3zrXQZ
e8CPaDvUnCSP0qAjSe8HtKts5qgfipJmK6mtq9hKuL2skXtLuScaWhh3fDYgTO6Z
zVXMU1luoTXKISxkmPaZsS9SJGbM9ZK2185wnkJawCqdxeGFDJyl+/8Bg60HbLKH
Li1H8SrxIP5x3p5y1TJwlIjy9lSMNTRkZRnNB2JDv+NHYfNABOtD5w03T52g4Z6N
bHH2Hgj+CnNw4+Y+9Ba0zpbkBliVn8uYKjWiGsiYU+yQ9un2zSbv/krO8z2r9T2A
h2LgJ62ivFdeXNsjgNZTgRFj01MJRJI+7fmXv5sMPBtcP7ya6sHETx/2l8XuiuhM
2qboZmTuH/KtQ7FZBwsf4a9h7SxwnyNKjESIopCNFiai0kZubCYSgAhaIgDLTCnA
wI1Iiw==
-----END CERTIFICATE-----
